; Function Attrs: mustprogress nofree norecurse nounwind memory(read, argmem: readwrite, inaccessiblemem: none) uwtable
define noundef i64 @_ZNK6google8protobuf8internal9ArenaImpl9SpaceUsedEv(ptr noundef nonnull readonly align 8 captures(none) dereferenceable(40) %0) local_unnamed_addr #15 align 2 personality ptr @__gxx_personality_v0 {
  %2 = load atomic i64, ptr %0 acquire, align 8
  %.not8 = icmp eq i64 %2, 0
  br i1 %.not8, label %._crit_edge, label %.lr.ph.preheader

.lr.ph.preheader:                                 ; preds = %1
  %.0.i.i = inttoptr i64 %2 to ptr
  br label %.lr.ph

.lr.ph:                                           ; preds = %.lr.ph.preheader, %_ZNK6google8protobuf8internal11SerialArena9SpaceUsedEv.exit
  %.010 = phi i64 [ %16, %_ZNK6google8protobuf8internal11SerialArena9SpaceUsedEv.exit ], [ 0, %.lr.ph.preheader ]
  %.069 = phi ptr [ %18, %_ZNK6google8protobuf8internal11SerialArena9SpaceUsedEv.exit ], [ %.0.i.i, %.lr.ph.preheader ]
  %3 = getelementptr inbounds nuw i8, ptr %.069, i64 40
  %4 = load ptr, ptr %3, align 8, !tbaa !49
  %5 = getelementptr inbounds nuw i8, ptr %.069, i64 16
  %6 = load ptr, ptr %5, align 8, !tbaa !48
  %7 = getelementptr inbounds nuw i8, ptr %6, i64 24
  %8 = ptrtoint ptr %4 to i64
  %9 = ptrtoint ptr %7 to i64
  %10 = sub i64 %8, %9
  %.0.in.in7.i = load i64, ptr %6, align 8, !tbaa !23
  %.0.in8.i = and i64 %.0.in.in7.i, -4
  %.not9.i = icmp eq i64 %.0.in8.i, 0
  br i1 %.not9.i, label %_ZNK6google8protobuf8internal11SerialArena9SpaceUsedEv.exit, label %.lr.ph.i

.lr.ph.i:                                         ; preds = %.lr.ph, %.lr.ph.i
  %.0.in11.i = phi i64 [ %.0.in.i, %.lr.ph.i ], [ %.0.in8.i, %.lr.ph ]
  %.0610.i = phi i64 [ %14, %.lr.ph.i ], [ %10, %.lr.ph ]
  %.0.i = inttoptr i64 %.0.in11.i to ptr
  %11 = getelementptr inbounds nuw i8, ptr %.0.i, i64 8
  %12 = load i64, ptr %11, align 8, !tbaa !36
  %13 = add i64 %.0610.i, -24
  %14 = add i64 %13, %12
  %.0.in.in.i = load i64, ptr %.0.i, align 8, !tbaa !23
  %.0.in.i = and i64 %.0.in.in.i, -4
  %.not.i = icmp eq i64 %.0.in.i, 0
  br i1 %.not.i, label %_ZNK6google8protobuf8internal11SerialArena9SpaceUsedEv.exit, label %.lr.ph.i, !llvm.loop !74

_ZNK6google8protobuf8internal11SerialArena9SpaceUsedEv.exit: ; preds = %.lr.ph.i, %.lr.ph
  %.06.lcssa.i = phi i64 [ %10, %.lr.ph ], [ %14, %.lr.ph.i ]
  %15 = add i64 %.010, -72
  %16 = add i64 %15, %.06.lcssa.i
  %17 = getelementptr inbounds nuw i8, ptr %.069, i64 32
  %18 = load ptr, ptr %17, align 8, !tbaa !63
  %.not = icmp eq ptr %18, null
  br i1 %.not, label %._crit_edge, label %.lr.ph, !llvm.loop !75

._crit_edge:                                      ; preds = %_ZNK6google8protobuf8internal11SerialArena9SpaceUsedEv.exit, %1
  %.0.lcssa = phi i64 [ 0, %1 ], [ %16, %_ZNK6google8protobuf8internal11SerialArena9SpaceUsedEv.exit ]
  %19 = getelementptr inbounds nuw i8, ptr %0, i64 32
  %20 = load ptr, ptr %19, align 8, !tbaa !3
  %.not7 = icmp eq ptr %20, null
  %21 = add i64 %.0.lcssa, -40
  %spec.select = select i1 %.not7, i64 %.0.lcssa, i64 %21
  ret i64 %spec.select
}